Certificate:
    Data:
        Version: 3 (0x2)
        Serial Number:
            03:b7:47:cd:26:7b:b8:97:41:c4:5c:9c:21:69:fe:5a
        Signature Algorithm: sha1WithRSAEncryption
        Issuer: OU=WM Transfer Certification Services, O=WM Transfer Ltd, CN=WebMoney Transfer Root CA
        Validity
            Not Before: Mar 10 17:34:56 2010 GMT
            Not After : Mar 10 17:44:51 2035 GMT
        Subject: OU=WM Transfer Certification Services, O=WM Transfer Ltd, CN=WebMoney Transfer Root CA
        Subject Public Key Info:
            Public Key Algorithm: rsaEncryption
            RSA Public Key: (4096 bit)
                Modulus (4096 bit):
                    00:c5:2c:95:ed:cc:49:19:c4:b8:f5:1c:88:fd:12:
                    11:af:6a:31:49:ed:10:87:cc:5f:8c:2b:66:6b:02:
                    0c:66:98:e6:9f:88:53:fa:40:3f:da:56:32:1e:c4:
                    1a:91:6f:c4:95:cb:7f:31:1f:ec:2d:86:a9:19:80:
                    b3:0e:1a:7f:2e:0c:da:45:89:e1:0c:a1:7d:d9:45:
                    fa:ad:09:c0:fb:e8:a0:f2:49:33:97:d5:05:30:1c:
                    0c:c1:7c:6b:a1:7b:66:50:50:b5:08:8f:17:4f:45:
                    ae:0d:0f:2b:e6:5e:1e:29:13:fb:35:fb:fe:dd:19:
                    b5:19:b3:f2:69:61:86:83:db:1c:40:b7:93:c3:4e:
                    3c:a5:b0:a3:a4:e0:53:1b:e6:4b:fa:8f:33:91:91:
                    79:2e:e5:42:85:19:45:c4:5d:b6:df:d7:1c:e0:60:
                    73:08:ce:87:89:1a:7f:a2:3e:05:45:60:0b:e4:91:
                    0c:af:c4:46:95:8f:49:4d:13:ea:bf:b9:ae:fa:d6:
                    4a:e0:0a:8e:3b:06:21:f5:cc:c1:73:92:fe:2e:34:
                    71:19:7d:ef:e5:c8:76:a8:cf:36:ec:bb:ac:9a:2b:
                    71:1d:ad:44:52:2e:e5:ab:97:12:b2:f7:2a:37:c4:
                    37:bd:4c:f9:33:92:13:de:24:f6:d5:ed:88:2f:51:
                    4b:56:49:e0:09:a6:4b:01:53:c1:82:00:b1:21:4a:
                    05:ce:7c:77:24:b8:91:63:f5:00:77:61:e7:07:06:
                    f8:dd:4a:20:14:ba:7b:70:33:f8:87:be:d4:8e:5c:
                    45:07:c6:a5:bb:e4:4d:86:ab:fd:8b:e2:f0:5c:c4:
                    0a:d7:55:d6:d4:ad:54:03:17:79:25:cd:8b:b5:ec:
                    e1:60:7d:ed:61:1c:73:07:ce:0a:f8:1c:13:0b:66:
                    24:42:72:f3:4b:aa:08:41:09:5c:6e:d4:33:35:e5:
                    80:df:c3:ec:27:35:5f:f9:75:43:f1:eb:4b:62:a1:
                    c9:82:66:92:4a:4f:05:65:f2:07:3c:e5:00:8f:c9:
                    11:2e:8d:ec:bc:17:49:20:76:0b:2c:42:8b:0f:59:
                    34:d6:0e:0e:d7:e0:87:f0:db:45:64:a6:51:d9:0e:
                    bd:bd:2b:91:dd:c0:b7:b9:e9:3b:ce:23:fe:07:db:
                    85:c9:76:aa:40:c6:82:c1:c7:d3:cb:e9:95:f1:1f:
                    9d:b0:53:46:d2:96:e2:fc:fe:3a:17:1b:36:af:16:
                    b8:6c:5c:7e:e3:26:87:07:ea:db:05:57:30:59:ae:
                    69:d5:b3:06:d4:30:70:cd:2f:7c:52:9e:be:5f:00:
                    05:d7:65:ae:d4:c0:77:77:a6:af:df:b1:d1:bb:b3:
                    d3:c1:c9
                Exponent: 65537 (0x10001)
        X509v3 extensions:
            X509v3 Key Usage: 
                Digital Signature, Certificate Sign, CRL Sign
            X509v3 Basic Constraints: critical
                CA:TRUE
            X509v3 Subject Key Identifier: 
                B1:30:A7:4B:03:99:4F:84:36:1C:13:7D:57:F4:EB:69:FB:88:1B:C3
            1.3.6.1.4.1.311.21.1: 
                ...
    Signature Algorithm: sha1WithRSAEncryption
        0c:b9:8c:70:c5:a5:55:ad:17:6d:3d:37:7d:08:f8:b1:ec:8a:
        a3:1a:2d:49:98:0d:e5:7a:b1:40:49:aa:65:80:65:ab:fb:a5:
        69:e2:82:23:0b:b8:97:7d:c9:16:bf:a3:0e:b2:2a:52:8f:46:
        2d:ec:6c:a6:81:c2:c0:10:fb:19:f3:f3:5d:67:2c:50:41:75:
        2e:0f:93:09:47:bb:50:7b:3f:80:76:61:b7:2a:98:5e:a4:d5:
        08:9e:24:16:71:3a:7e:f0:95:e7:6d:9e:80:40:91:9e:1d:e8:
        71:16:d4:e3:39:72:f0:a8:ca:3f:18:01:d2:53:64:80:73:9f:
        ad:5a:36:df:ef:88:fb:f2:a4:85:10:7f:a3:ec:e9:0d:9d:68:
        d1:00:8f:b0:e8:c4:86:3c:72:b9:ce:69:22:06:74:69:a5:4f:
        fc:bf:79:d4:aa:5a:ff:40:9b:97:bd:29:79:09:85:05:8c:9c:
        65:e1:e3:7c:09:63:21:d3:7a:dc:55:58:f4:b8:dd:b5:bb:80:
        85:00:0d:8c:9c:29:21:f7:8a:ca:c1:37:9c:50:38:55:cc:7c:
        bf:a5:54:71:d2:b3:b6:a9:db:70:ce:a3:bc:48:0d:e9:e6:e4:
        f5:b3:f9:07:43:0c:5c:f7:cc:b5:5e:46:8b:e7:90:87:64:6b:
        f5:a0:93:77:fa:ac:57:ca:07:4c:b9:3c:e2:7e:04:9b:e4:a2:
        b2:18:35:98:8d:dd:d9:e6:73:a7:03:3f:ce:34:05:43:2f:dc:
        15:2b:39:ef:22:4b:2e:65:46:bf:26:47:e7:5a:92:d6:d9:7c:
        ef:04:fe:b0:1b:df:31:1d:37:e2:86:fc:23:49:7c:09:d0:be:
        9e:83:4f:82:ea:63:f2:7d:a4:6f:95:ba:c1:f9:1a:95:30:b9:
        7a:fb:52:a2:f0:12:77:75:2d:1a:7b:aa:6d:bc:0a:27:3b:7d:
        e8:14:9e:75:29:92:e1:78:64:5a:bc:a5:6a:bc:c3:9f:6c:39:
        69:51:b8:a0:6e:59:7e:3a:3a:08:4c:ae:38:03:d0:03:75:86:
        50:36:fd:de:54:2c:89:97:ef:44:36:b5:ed:f1:89:2d:6f:ad:
        08:6e:ef:b9:a4:6f:f8:c0:e3:ff:7e:61:f7:93:ed:53:29:6e:
        70:b7:3a:81:e2:67:66:e3:b9:d2:a7:b6:19:4e:b3:e0:2e:52:
        fc:c1:e1:3a:a8:eb:65:52:17:9f:ab:d2:c6:08:e7:dd:d2:f9:
        24:e6:69:90:40:ce:ca:1a:a0:40:7b:ab:1a:8a:6c:42:82:bd:
        76:fd:06:55:e4:2f:be:b1:20:e1:24:6d:22:1d:3c:89:06:5c:
        ce:1a:32:8e:26:4d:5c:fb
-----BEGIN CERTIFICATE-----
MIIFsTCCA5mgAwIBAgIQA7dHzSZ7uJdBxFycIWn+WjANBgkqhkiG9w0BAQUFADBr
MSswKQYDVQQLEyJXTSBUcmFuc2ZlciBDZXJ0aWZpY2F0aW9uIFNlcnZpY2VzMRgw
FgYDVQQKEw9XTSBUcmFuc2ZlciBMdGQxIjAgBgNVBAMTGVdlYk1vbmV5IFRyYW5z
ZmVyIFJvb3QgQ0EwHhcNMTAwMzEwMTczNDU2WhcNMzUwMzEwMTc0NDUxWjBrMSsw
KQYDVQQLEyJXTSBUcmFuc2ZlciBDZXJ0aWZpY2F0aW9uIFNlcnZpY2VzMRgwFgYD
VQQKEw9XTSBUcmFuc2ZlciBMdGQxIjAgBgNVBAMTGVdlYk1vbmV5IFRyYW5zZmVy
IFJvb3QgQ0EwggIiMA0GCSqGSIb3DQEBAQUAA4ICDwAwggIKAoICAQDFLJXtzEkZ
xLj1HIj9EhGvajFJ7RCHzF+MK2ZrAgxmmOafiFP6QD/aVjIexBqRb8SVy38xH+wt
hqkZgLMOGn8uDNpFieEMoX3ZRfqtCcD76KDySTOX1QUwHAzBfGuhe2ZQULUIjxdP
Ra4NDyvmXh4pE/s1+/7dGbUZs/JpYYaD2xxAt5PDTjylsKOk4FMb5kv6jzORkXku
5UKFGUXEXbbf1xzgYHMIzoeJGn+iPgVFYAvkkQyvxEaVj0lNE+q/ua761krgCo47
BiH1zMFzkv4uNHEZfe/lyHaozzbsu6yaK3EdrURSLuWrlxKy9yo3xDe9TPkzkhPe
JPbV7YgvUUtWSeAJpksBU8GCALEhSgXOfHckuJFj9QB3YecHBvjdSiAUuntwM/iH
vtSOXEUHxqW75E2Gq/2L4vBcxArXVdbUrVQDF3klzYu17OFgfe1hHHMHzgr4HBML
ZiRCcvNLqghBCVxu1DM15YDfw+wnNV/5dUPx60tiocmCZpJKTwVl8gc85QCPyREu
jey8F0kgdgssQosPWTTWDg7X4Ifw20VkplHZDr29K5HdwLe56TvOI/4H24XJdqpA
xoLBx9PL6ZXxH52wU0bSluL8/joXGzavFrhsXH7jJocH6tsFVzBZrmnVswbUMHDN
L3xSnr5fAAXXZa7UwHd3pq/fsdG7s9PByQIDAQABo1EwTzALBgNVHQ8EBAMCAYYw
DwYDVR0TAQH/BAUwAwEB/zAdBgNVHQ4EFgQUsTCnSwOZT4Q2HBN9V/TrafuIG8Mw
EAYJKwYBBAGCNxUBBAMCAQAwDQYJKoZIhvcNAQEFBQADggIBAAy5jHDFpVWtF209
N30I+LHsiqMaLUmYDeV6sUBJqmWAZav7pWnigiMLuJd9yRa/ow6yKlKPRi3sbKaB
wsAQ+xnz811nLFBBdS4PkwlHu1B7P4B2YbcqmF6k1QieJBZxOn7wledtnoBAkZ4d
6HEW1OM5cvCoyj8YAdJTZIBzn61aNt/viPvypIUQf6Ps6Q2daNEAj7DoxIY8crnO
aSIGdGmlT/y/edSqWv9Am5e9KXkJhQWMnGXh43wJYyHTetxVWPS43bW7gIUADYyc
KSH3isrBN5xQOFXMfL+lVHHSs7ap23DOo7xIDenm5PWz+QdDDFz3zLVeRovnkIdk
a/Wgk3f6rFfKB0y5POJ+BJvkorIYNZiN3dnmc6cDP840BUMv3BUrOe8iSy5lRr8m
R+daktbZfO8E/rAb3zEdN+KG/CNJfAnQvp6DT4LqY/J9pG+VusH5GpUwuXr7UqLw
End1LRp7qm28Cic7fegUnnUpkuF4ZFq8pWq8w59sOWlRuKBuWX46OghMrjgD0AN1
hlA2/d5ULImX70Q2te3xiS1vrQhu77mkb/jA4/9+YfeT7VMpbnC3OoHiZ2bjudKn
thlOs+AuUvzB4Tqo62VSF5+r0sYI593S+STmaZBAzsoaoEB7qxqKbEKCvXb9BlXk
L76xIOEkbSIdPIkGXM4aMo4mTVz7
-----END CERTIFICATE-----
